target datalayout = "e-m:e-p270:32:32-p271:32:32-p272:64:64-i64:64-i128:128-f80:128-n8:16:32:64-S128"
target triple = "x86_64-unknown-linux-gnu"

%"struct.facebook::velox::StringView" = type { i32, [4 x i8], %union.anon }
%union.anon = type { ptr }

; Function Attrs: mustprogress nounwind uwtable
define linkonce_odr noundef i64 @_ZNK8facebook5velox10StringView4sizeEv(ptr noundef nonnull align 8 dereferenceable(16) %this) #1 comdat align 2 {
entry:
  %this.addr = alloca ptr, align 8
  store ptr %this, ptr %this.addr, align 8
  %this1 = load ptr, ptr %this.addr, align 8
  %size_ = getelementptr inbounds %"struct.facebook::velox::StringView", ptr %this1, i32 0, i32 0
  %0 = load i32, ptr %size_, align 8
  %conv = zext i32 %0 to i64
  ret i64 %conv
}

; Function Attrs: mustprogress uwtable
define linkonce_odr noundef ptr @_ZNKR8facebook5velox10StringView4dataEv(ptr noundef nonnull align 8 dereferenceable(16) %this) #0 comdat align 2 {
entry:
  %this.addr = alloca ptr, align 8
  store ptr %this, ptr %this.addr, align 8
  %this1 = load ptr, ptr %this.addr, align 8
  %call = call noundef zeroext i1 @_ZNK8facebook5velox10StringView8isInlineEv(ptr noundef nonnull align 8 dereferenceable(16) %this1)
  br i1 %call, label %cond.true, label %cond.false

cond.true:                                        ; preds = %entry
  %prefix_ = getelementptr inbounds %"struct.facebook::velox::StringView", ptr %this1, i32 0, i32 1
  %arraydecay = getelementptr inbounds [4 x i8], ptr %prefix_, i64 0, i64 0
  br label %cond.end

cond.false:                                       ; preds = %entry
  %value_ = getelementptr inbounds %"struct.facebook::velox::StringView", ptr %this1, i32 0, i32 2
  %0 = load ptr, ptr %value_, align 8
  br label %cond.end

cond.end:                                         ; preds = %cond.false, %cond.true
  %cond = phi ptr [ %arraydecay, %cond.true ], [ %0, %cond.false ]
  ret ptr %cond
}

; Function Attrs: mustprogress uwtable
define linkonce_odr noundef zeroext i1 @_ZNK8facebook5velox10StringView8isInlineEv(ptr noundef nonnull align 8 dereferenceable(16) %this) #0 comdat align 2 {
entry:
  %size.addr.i = alloca i32, align 4
  %this.addr = alloca ptr, align 8
  store ptr %this, ptr %this.addr, align 8
  %this1 = load ptr, ptr %this.addr, align 8
  %size_ = getelementptr inbounds %"struct.facebook::velox::StringView", ptr %this1, i32 0, i32 0
  %0 = load i32, ptr %size_, align 8
  store i32 %0, ptr %size.addr.i, align 4
  %1 = load i32, ptr %size.addr.i, align 4
  %conv.i = zext i32 %1 to i64
  %cmp.i = icmp ule i64 %conv.i, 12
  ret i1 %cmp.i
}

; Function Attrs: mustprogress uwtable
define { i64, ptr } @_ZN8facebook5velox22StringViewBufferHolder18getOwnedStringViewENS0_10StringViewE(ptr noundef nonnull align 8 dereferenceable(32) %this, i64 %stringView.coerce0, ptr %stringView.coerce1) #0 align 2 {
entry:
  %retval = alloca %"struct.facebook::velox::StringView", align 8
  %stringView = alloca %"struct.facebook::velox::StringView", align 8
  %this.addr = alloca ptr, align 8
  %0 = getelementptr inbounds { i64, ptr }, ptr %stringView, i32 0, i32 0
  store i64 %stringView.coerce0, ptr %0, align 8
  %1 = getelementptr inbounds { i64, ptr }, ptr %stringView, i32 0, i32 1
  store ptr %stringView.coerce1, ptr %1, align 8
  store ptr %this, ptr %this.addr, align 8
  %this1 = load ptr, ptr %this.addr, align 8
  %call = call noundef zeroext i1 @_ZNK8facebook5velox10StringView8isInlineEv(ptr noundef nonnull align 8 dereferenceable(16) %stringView)
  br i1 %call, label %if.then, label %if.end

if.then:                                          ; preds = %entry
  call void @llvm.memcpy.p0.p0.i64(ptr align 8 %retval, ptr align 8 %stringView, i64 16, i1 false)
  br label %return

if.end:                                           ; preds = %entry
  %call2 = call noundef ptr @_ZNKR8facebook5velox10StringView4dataEv(ptr noundef nonnull align 8 dereferenceable(16) %stringView)
  %call3 = call noundef i64 @_ZNK8facebook5velox10StringView4sizeEv(ptr noundef nonnull align 8 dereferenceable(16) %stringView)
  %conv = trunc i64 %call3 to i32
  %call4 = call { i64, ptr } @_ZN8facebook5velox22StringViewBufferHolder18getOwnedStringViewEPKci(ptr noundef nonnull align 8 dereferenceable(32) %this1, ptr noundef %call2, i32 noundef %conv)
  %2 = getelementptr inbounds { i64, ptr }, ptr %retval, i32 0, i32 0
  %3 = extractvalue { i64, ptr } %call4, 0
  store i64 %3, ptr %2, align 8
  %4 = getelementptr inbounds { i64, ptr }, ptr %retval, i32 0, i32 1
  %5 = extractvalue { i64, ptr } %call4, 1
  store ptr %5, ptr %4, align 8
  br label %return

return:                                           ; preds = %if.end, %if.then
  %6 = load { i64, ptr }, ptr %retval, align 8
  ret { i64, ptr } %6
}