; Function Attrs: mustprogress uwtable
define { i64, ptr } @_ZN8facebook5velox22StringViewBufferHolder18getOwnedStringViewENS0_10StringViewE(ptr nocapture noundef nonnull align 8 dereferenceable(32) %this, i64 %stringView.coerce0, ptr %stringView.coerce1) local_unnamed_addr #0 align 2 {
entry:
  %stringView.sroa.0.0.extract.trunc = trunc i64 %stringView.coerce0 to i32
  %cmp.i.i = icmp ult i32 %stringView.sroa.0.0.extract.trunc, 13
  br i1 %cmp.i.i, label %return, label %if.end

if.end:                                           ; preds = %entry
  %call4 = tail call { i64, ptr } @_ZN8facebook5velox22StringViewBufferHolder18getOwnedStringViewEPKci(ptr noundef nonnull align 8 dereferenceable(32) %this, ptr noundef %stringView.coerce1, i32 noundef %stringView.sroa.0.0.extract.trunc)
  %0 = extractvalue { i64, ptr } %call4, 0
  %1 = extractvalue { i64, ptr } %call4, 1
  br label %return

return:                                           ; preds = %entry, %if.end
  %retval.sroa.0.0 = phi i64 [ %0, %if.end ], [ %stringView.coerce0, %entry ]
  %retval.sroa.3.0 = phi ptr [ %1, %if.end ], [ %stringView.coerce1, %entry ]
  %.fca.0.insert = insertvalue { i64, ptr } poison, i64 %retval.sroa.0.0, 0
  %.fca.1.insert = insertvalue { i64, ptr } %.fca.0.insert, ptr %retval.sroa.3.0, 1
  ret { i64, ptr } %.fca.1.insert
}